; ModuleID = 'source-C-CXX/29/1447.cpp'
source_filename = "source-C-CXX/29/1447.cpp"
target datalayout = "e-m:e-p270:32:32-p271:32:32-p272:64:64-i64:64-f80:128-n8:16:32:64-S128"
target triple = "x86_64-pc-linux-gnu"

%"class.std::ios_base::Init" = type { i8 }
%"class.std::basic_istream" = type { i32 (...)**, i64, %"class.std::basic_ios" }
%"class.std::basic_ios" = type { %"class.std::ios_base", %"class.std::basic_ostream"*, i8, i8, %"class.std::basic_streambuf"*, %"class.std::ctype"*, %"class.std::num_put"*, %"class.std::num_get"* }
%"class.std::ios_base" = type { i32 (...)**, i64, i64, i32, i32, i32, %"struct.std::ios_base::_Callback_list"*, %"struct.std::ios_base::_Words", [8 x %"struct.std::ios_base::_Words"], i32, %"struct.std::ios_base::_Words"*, %"class.std::locale" }
%"struct.std::ios_base::_Callback_list" = type { %"struct.std::ios_base::_Callback_list"*, void (i32, %"class.std::ios_base"*, i32)*, i32, i32 }
%"struct.std::ios_base::_Words" = type { i8*, i64 }
%"class.std::locale" = type { %"class.std::locale::_Impl"* }
%"class.std::locale::_Impl" = type { i32, %"class.std::locale::facet"**, i64, %"class.std::locale::facet"**, i8** }
%"class.std::locale::facet" = type <{ i32 (...)**, i32, [4 x i8] }>
%"class.std::basic_ostream" = type { i32 (...)**, %"class.std::basic_ios" }
%"class.std::basic_streambuf" = type { i32 (...)**, i8*, i8*, i8*, i8*, i8*, i8*, %"class.std::locale" }
%"class.std::ctype" = type <{ %"class.std::locale::facet.base", [4 x i8], %struct.__locale_struct*, i8, [7 x i8], i32*, i32*, i16*, i8, [256 x i8], [256 x i8], i8, [6 x i8] }>
%"class.std::locale::facet.base" = type <{ i32 (...)**, i32 }>
%struct.__locale_struct = type { [13 x %struct.__locale_data*], i16*, i32*, i32*, [13 x i8*] }
%struct.__locale_data = type opaque
%"class.std::num_put" = type { %"class.std::locale::facet.base", [4 x i8] }
%"class.std::num_get" = type { %"class.std::locale::facet.base", [4 x i8] }

@_ZStL8__ioinit = internal global %"class.std::ios_base::Init" zeroinitializer, align 1
@__dso_handle = external hidden global i8
@_ZSt3cin = external global %"class.std::basic_istream", align 8
@_ZSt4cout = external global %"class.std::basic_ostream", align 8
@llvm.global_ctors = appending global [1 x { i32, void ()*, i8* }] [{ i32, void ()*, i8* } { i32 65535, void ()* @_GLOBAL__sub_I_1447.cpp, i8* null }]

declare void @_ZNSt8ios_base4InitC1Ev(%"class.std::ios_base::Init"* nonnull align 1 dereferenceable(1)) unnamed_addr #0

; Function Attrs: nounwind
declare void @_ZNSt8ios_base4InitD1Ev(%"class.std::ios_base::Init"* nonnull align 1 dereferenceable(1)) unnamed_addr #1

; Function Attrs: nofree nounwind
declare i32 @__cxa_atexit(void (i8*)*, i8*, i8*) local_unnamed_addr #2

; Function Attrs: mustprogress norecurse sspstrong uwtable
define dso_local i32 @main() local_unnamed_addr #3 {
  %1 = alloca i32, align 4
  %2 = bitcast i32* %1 to i8*
  call void @llvm.lifetime.start.p0i8(i64 4, i8* nonnull %2) #8
  store i32 0, i32* %1, align 4, !tbaa !5
  %3 = call nonnull align 8 dereferenceable(16) %"class.std::basic_istream"* @_ZNSirsERi(%"class.std::basic_istream"* nonnull align 8 dereferenceable(16) @_ZSt3cin, i32* nonnull align 4 dereferenceable(4) %1)
  %4 = load i32, i32* %1, align 4, !tbaa !5
  %5 = icmp slt i32 %4, 1
  br i1 %5, label %92, label %6

6:                                                ; preds = %0
  %7 = add nsw i32 %4, -1
  %8 = zext i32 %7 to i33
  %9 = add nsw i32 %4, -2
  %10 = zext i32 %9 to i33
  %11 = mul i33 %8, %10
  %12 = add nsw i32 %4, -3
  %13 = zext i32 %12 to i33
  %14 = mul i33 %11, %13
  %15 = lshr i33 %14, 1
  %16 = trunc i33 %15 to i32
  %17 = mul i32 %16, 1431655766
  %18 = lshr i33 %11, 1
  %19 = trunc i33 %18 to i32
  %20 = mul i32 %19, 5
  %21 = add i32 %17, %20
  %22 = shl i32 %4, 2
  %23 = add i32 %21, %22
  %24 = add i32 %23, -3
  %25 = icmp slt i32 %4, 7
  br i1 %25, label %92, label %26

26:                                               ; preds = %6
  %27 = add nsw i32 %4, -7
  %28 = udiv i32 %27, 7
  %29 = zext i32 %28 to i33
  %30 = udiv i32 %27, 7
  %31 = add nsw i32 %30, -1
  %32 = zext i32 %31 to i33
  %33 = mul i33 %29, %32
  %34 = add nsw i32 %30, -2
  %35 = zext i32 %34 to i33
  %36 = mul i33 %33, %35
  %37 = lshr i33 %36, 1
  %38 = trunc i33 %37 to i32
  %39 = mul i32 %38, -1431655798
  %40 = lshr i33 %33, 1
  %41 = trunc i33 %40 to i32
  %42 = mul i32 %41, -245
  %43 = add i32 %39, %42
  %44 = mul i32 %30, -196
  %45 = add i32 %43, %44
  %46 = add i32 %45, -49
  %47 = icmp sgt i32 %4, 69
  br i1 %47, label %48, label %68

48:                                               ; preds = %26
  %49 = add nsw i32 %4, -70
  %50 = call i32 @llvm.umin.i32(i32 %49, i32 9)
  %51 = zext i32 %50 to i33
  %52 = add nsw i32 %50, -1
  %53 = zext i32 %52 to i33
  %54 = mul i33 %51, %53
  %55 = add nsw i32 %50, -2
  %56 = zext i32 %55 to i33
  %57 = mul i33 %54, %56
  %58 = lshr i33 %57, 1
  %59 = trunc i33 %58 to i32
  %60 = mul i32 %59, -1431655766
  %61 = mul nsw i32 %50, -5041
  %62 = add i32 %60, %61
  %63 = lshr i33 %54, 1
  %64 = trunc i33 %63 to i32
  %65 = mul i32 %64, -143
  %66 = add i32 %62, %65
  %67 = add i32 %66, -4900
  br label %70

68:                                               ; preds = %26
  %69 = icmp slt i32 %4, 17
  br i1 %69, label %92, label %70

70:                                               ; preds = %48, %68
  %71 = phi i32 [ %67, %48 ], [ 0, %68 ]
  %72 = add nsw i32 %4, -17
  %73 = udiv i32 %72, 10
  %74 = zext i32 %73 to i33
  %75 = udiv i32 %72, 10
  %76 = add nsw i32 %75, -1
  %77 = zext i32 %76 to i33
  %78 = mul i33 %74, %77
  %79 = add nsw i32 %75, -2
  %80 = zext i32 %79 to i33
  %81 = mul i33 %78, %80
  %82 = lshr i33 %81, 1
  %83 = trunc i33 %82 to i32
  %84 = mul i32 %83, -1431655832
  %85 = mul i32 %75, -729
  %86 = add i32 %84, %85
  %87 = lshr i33 %78, 1
  %88 = trunc i33 %87 to i32
  %89 = mul i32 %88, -640
  %90 = add i32 %86, %89
  %91 = add i32 %90, -289
  br label %92

92:                                               ; preds = %6, %0, %70, %68
  %93 = phi i32 [ 0, %68 ], [ %71, %70 ], [ 0, %0 ], [ 0, %6 ]
  %94 = phi i32 [ %24, %68 ], [ %24, %70 ], [ 0, %0 ], [ %24, %6 ]
  %95 = phi i32 [ %46, %68 ], [ %46, %70 ], [ 0, %0 ], [ 0, %6 ]
  %96 = phi i1 [ false, %68 ], [ %47, %70 ], [ false, %0 ], [ false, %6 ]
  %97 = phi i32 [ 0, %68 ], [ %91, %70 ], [ 0, %0 ], [ 0, %6 ]
  %98 = add i32 %95, %93
  %99 = add i32 %98, %97
  %100 = add i32 %99, %94
  %101 = icmp sgt i32 %4, 76
  %102 = add nsw i32 %100, 16758
  %103 = add nsw i32 %100, 4900
  %104 = select i1 %96, i32 %103, i32 %100
  %105 = select i1 %101, i32 %102, i32 %104
  %106 = call nonnull align 8 dereferenceable(8) %"class.std::basic_ostream"* @_ZNSolsEi(%"class.std::basic_ostream"* nonnull align 8 dereferenceable(8) @_ZSt4cout, i32 %105)
  %107 = bitcast %"class.std::basic_ostream"* %106 to i8**
  %108 = load i8*, i8** %107, align 8, !tbaa !9
  %109 = getelementptr i8, i8* %108, i64 -24
  %110 = bitcast i8* %109 to i64*
  %111 = load i64, i64* %110, align 8
  %112 = bitcast %"class.std::basic_ostream"* %106 to i8*
  %113 = add nsw i64 %111, 240
  %114 = getelementptr inbounds i8, i8* %112, i64 %113
  %115 = bitcast i8* %114 to %"class.std::ctype"**
  %116 = load %"class.std::ctype"*, %"class.std::ctype"** %115, align 8, !tbaa !11
  %117 = icmp eq %"class.std::ctype"* %116, null
  br i1 %117, label %118, label %119

118:                                              ; preds = %92
  call void @_ZSt16__throw_bad_castv() #9
  unreachable

119:                                              ; preds = %92
  %120 = getelementptr inbounds %"class.std::ctype", %"class.std::ctype"* %116, i64 0, i32 8
  %121 = load i8, i8* %120, align 8, !tbaa !15
  %122 = icmp eq i8 %121, 0
  br i1 %122, label %126, label %123

123:                                              ; preds = %119
  %124 = getelementptr inbounds %"class.std::ctype", %"class.std::ctype"* %116, i64 0, i32 9, i64 10
  %125 = load i8, i8* %124, align 1, !tbaa !17
  br label %132

126:                                              ; preds = %119
  call void @_ZNKSt5ctypeIcE13_M_widen_initEv(%"class.std::ctype"* nonnull align 8 dereferenceable(570) %116)
  %127 = bitcast %"class.std::ctype"* %116 to i8 (%"class.std::ctype"*, i8)***
  %128 = load i8 (%"class.std::ctype"*, i8)**, i8 (%"class.std::ctype"*, i8)*** %127, align 8, !tbaa !9
  %129 = getelementptr inbounds i8 (%"class.std::ctype"*, i8)*, i8 (%"class.std::ctype"*, i8)** %128, i64 6
  %130 = load i8 (%"class.std::ctype"*, i8)*, i8 (%"class.std::ctype"*, i8)** %129, align 8
  %131 = call signext i8 %130(%"class.std::ctype"* nonnull align 8 dereferenceable(570) %116, i8 signext 10)
  br label %132

132:                                              ; preds = %123, %126
  %133 = phi i8 [ %125, %123 ], [ %131, %126 ]
  %134 = call nonnull align 8 dereferenceable(8) %"class.std::basic_ostream"* @_ZNSo3putEc(%"class.std::basic_ostream"* nonnull align 8 dereferenceable(8) %106, i8 signext %133)
  %135 = call nonnull align 8 dereferenceable(8) %"class.std::basic_ostream"* @_ZNSo5flushEv(%"class.std::basic_ostream"* nonnull align 8 dereferenceable(8) %134)
  call void @llvm.lifetime.end.p0i8(i64 4, i8* nonnull %2) #8
  ret i32 0
}

; Function Attrs: argmemonly mustprogress nofree nosync nounwind willreturn
declare void @llvm.lifetime.start.p0i8(i64 immarg, i8* nocapture) #4

declare nonnull align 8 dereferenceable(16) %"class.std::basic_istream"* @_ZNSirsERi(%"class.std::basic_istream"* nonnull align 8 dereferenceable(16), i32* nonnull align 4 dereferenceable(4)) local_unnamed_addr #0

declare nonnull align 8 dereferenceable(8) %"class.std::basic_ostream"* @_ZNSolsEi(%"class.std::basic_ostream"* nonnull align 8 dereferenceable(8), i32) local_unnamed_addr #0

; Function Attrs: argmemonly mustprogress nofree nosync nounwind willreturn
declare void @llvm.lifetime.end.p0i8(i64 immarg, i8* nocapture) #4

declare nonnull align 8 dereferenceable(8) %"class.std::basic_ostream"* @_ZNSo3putEc(%"class.std::basic_ostream"* nonnull align 8 dereferenceable(8), i8 signext) local_unnamed_addr #0

declare nonnull align 8 dereferenceable(8) %"class.std::basic_ostream"* @_ZNSo5flushEv(%"class.std::basic_ostream"* nonnull align 8 dereferenceable(8)) local_unnamed_addr #0

; Function Attrs: noreturn
declare void @_ZSt16__throw_bad_castv() local_unnamed_addr #5

declare void @_ZNKSt5ctypeIcE13_M_widen_initEv(%"class.std::ctype"* nonnull align 8 dereferenceable(570)) local_unnamed_addr #0

; Function Attrs: sspstrong uwtable
define internal void @_GLOBAL__sub_I_1447.cpp() #6 section ".text.startup" {
  tail call void @_ZNSt8ios_base4InitC1Ev(%"class.std::ios_base::Init"* nonnull align 1 dereferenceable(1) @_ZStL8__ioinit)
  %1 = tail call i32 @__cxa_atexit(void (i8*)* bitcast (void (%"class.std::ios_base::Init"*)* @_ZNSt8ios_base4InitD1Ev to void (i8*)*), i8* getelementptr inbounds (%"class.std::ios_base::Init", %"class.std::ios_base::Init"* @_ZStL8__ioinit, i64 0, i32 0), i8* nonnull @__dso_handle) #8
  ret void
}

; Function Attrs: nofree nosync nounwind readnone speculatable willreturn
declare i32 @llvm.umin.i32(i32, i32) #7


!llvm.module.flags = !{!0, !1, !2, !3}
!llvm.ident = !{!4}

!0 = !{i32 1, !"wchar_size", i32 4}
!1 = !{i32 7, !"PIC Level", i32 2}
!2 = !{i32 7, !"PIE Level", i32 2}
!3 = !{i32 7, !"uwtable", i32 1}
!4 = !{!"clang version 13.0.0"}
!5 = !{!6, !6, i64 0}
!6 = !{!"int", !7, i64 0}
!7 = !{!"omnipotent char", !8, i64 0}
!8 = !{!"Simple C++ TBAA"}
!9 = !{!10, !10, i64 0}
!10 = !{!"vtable pointer", !8, i64 0}
!11 = !{!12, !13, i64 240}
!12 = !{!"_ZTSSt9basic_iosIcSt11char_traitsIcEE", !13, i64 216, !7, i64 224, !14, i64 225, !13, i64 232, !13, i64 240, !13, i64 248, !13, i64 256}
!13 = !{!"any pointer", !7, i64 0}
!14 = !{!"bool", !7, i64 0}
!15 = !{!16, !7, i64 56}
!16 = !{!"_ZTSSt5ctypeIcE", !13, i64 16, !14, i64 24, !13, i64 32, !13, i64 40, !13, i64 48, !7, i64 56, !7, i64 57, !7, i64 313, !7, i64 569}
!17 = !{!7, !7, i64 0}
